target datalayout = "e-m:e-p270:32:32-p271:32:32-p272:64:64-i64:64-i128:128-f80:128-n8:16:32:64-S128"
target triple = "x86_64-pc-linux-gnu"

%struct.mime_param_st = type { ptr, ptr }

; Function Attrs: nounwind uwtable
define internal i32 @mime_param_cmp(ptr noundef %0, ptr noundef %1) #0 {
  %3 = alloca i32, align 4
  %4 = alloca ptr, align 8
  %5 = alloca ptr, align 8
  store ptr %0, ptr %4, align 8, !tbaa !91
  store ptr %1, ptr %5, align 8, !tbaa !91
  %6 = load ptr, ptr %4, align 8, !tbaa !91
  %7 = load ptr, ptr %6, align 8, !tbaa !65
  %8 = getelementptr inbounds nuw %struct.mime_param_st, ptr %7, i32 0, i32 0
  %9 = load ptr, ptr %8, align 8, !tbaa !75
  %10 = icmp eq ptr %9, null
  br i1 %10, label %17, label %11

11:                                               ; preds = %2
  %12 = load ptr, ptr %5, align 8, !tbaa !91
  %13 = load ptr, ptr %12, align 8, !tbaa !65
  %14 = getelementptr inbounds nuw %struct.mime_param_st, ptr %13, i32 0, i32 0
  %15 = load ptr, ptr %14, align 8, !tbaa !75
  %16 = icmp eq ptr %15, null
  br i1 %16, label %17, label %31

17:                                               ; preds = %11, %2
  %18 = load ptr, ptr %4, align 8, !tbaa !91
  %19 = load ptr, ptr %18, align 8, !tbaa !65
  %20 = getelementptr inbounds nuw %struct.mime_param_st, ptr %19, i32 0, i32 0
  %21 = load ptr, ptr %20, align 8, !tbaa !75
  %22 = icmp ne ptr %21, null
  %23 = zext i1 %22 to i32
  %24 = load ptr, ptr %5, align 8, !tbaa !91
  %25 = load ptr, ptr %24, align 8, !tbaa !65
  %26 = getelementptr inbounds nuw %struct.mime_param_st, ptr %25, i32 0, i32 0
  %27 = load ptr, ptr %26, align 8, !tbaa !75
  %28 = icmp ne ptr %27, null
  %29 = zext i1 %28 to i32
  %30 = sub nsw i32 %23, %29
  store i32 %30, ptr %3, align 4
  br label %41

31:                                               ; preds = %11
  %32 = load ptr, ptr %4, align 8, !tbaa !91
  %33 = load ptr, ptr %32, align 8, !tbaa !65
  %34 = getelementptr inbounds nuw %struct.mime_param_st, ptr %33, i32 0, i32 0
  %35 = load ptr, ptr %34, align 8, !tbaa !75
  %36 = load ptr, ptr %5, align 8, !tbaa !91
  %37 = load ptr, ptr %36, align 8, !tbaa !65
  %38 = getelementptr inbounds nuw %struct.mime_param_st, ptr %37, i32 0, i32 0
  %39 = load ptr, ptr %38, align 8, !tbaa !75
  %40 = call i32 @strcmp(ptr noundef %35, ptr noundef %39) #6
  store i32 %40, ptr %3, align 4
  br label %41

41:                                               ; preds = %31, %17
  %42 = load i32, ptr %3, align 4
  ret i32 %42
}