; Function Attrs: mustprogress nofree nounwind willreturn memory(read, inaccessiblemem: none) uwtable
define internal i32 @mime_param_cmp(ptr noundef readonly captures(none) %0, ptr noundef readonly captures(none) %1) #4 {
  %3 = load ptr, ptr %0, align 8, !tbaa !61
  %4 = load ptr, ptr %3, align 8, !tbaa !45
  %5 = icmp eq ptr %4, null
  %.pre = load ptr, ptr %1, align 8, !tbaa !61
  %.pre8 = load ptr, ptr %.pre, align 8, !tbaa !45
  %6 = icmp eq ptr %.pre8, null
  %or.cond = select i1 %5, i1 true, i1 %6
  br i1 %or.cond, label %7, label %12

7:                                                ; preds = %2
  %8 = icmp ne ptr %4, null
  %9 = zext i1 %8 to i32
  %10 = icmp ne ptr %.pre8, null
  %.neg = sext i1 %10 to i32
  %11 = add nsw i32 %.neg, %9
  br label %14

12:                                               ; preds = %2
  %13 = tail call i32 @strcmp(ptr noundef nonnull dereferenceable(1) %4, ptr noundef nonnull dereferenceable(1) %.pre8) #7
  br label %14

14:                                               ; preds = %12, %7
  %.0 = phi i32 [ %11, %7 ], [ %13, %12 ]
  ret i32 %.0
}